#include <math.h>
#include <stdio.h>
#include <stdlib.h>
#include <string.h>

int main()
{
	int i,j,n,m,k=0;
	scanf("%d",&n);
    int *p;
    p=(int *)malloc(sizeof(int)*n);
    for(i=0;i<n;i++)
    scanf("%d",p+i);
    scanf("%d",&m);
    for(i=0;i<n-k;i++){
    	if(*(p+i)==m){
	       k++;
		   for(j=i;j<n-k;j++)
		      *(p+j)=*(p+j+1);
           i--;
	    }    	
    }
    for(i=0;i<n-k-1;i++)
   	printf("%d ",*(p+i));
   	printf("%d",*(p+n-k-1));
}